target datalayout = "e-m:e-p270:32:32-p271:32:32-p272:64:64-i64:64-i128:128-f80:128-n8:16:32:64-S128"
target triple = "x86_64-pc-linux-gnu"

%struct.Ses_Man_t_ = type { ptr, ptr, i32, i32, i32, i32, i32, i32, i32, ptr, [8 x i32], i32, i32, i32, i32, i32, i32, i32, i32, i32, [4 x i64], ptr, ptr, i32, i32, i32, i32, i32, i32, i32, ptr, [8 x i32], [100 x i64], i32, i32, i32, i32, i32, i32, i32, i32, i32, i32, i32, i64, i64, i64, i64, i64, i64, i32, i32, i32, i32 }

@.str = private unnamed_addr constant [2 x i8] c"\0A\00", align 1
@stdout = external global ptr, align 8
@.str.37 = private unnamed_addr constant [4 x i8] c" %d\00", align 1
@.str.48 = private unnamed_addr constant [52 x i8] c"find optimum circuit for %d %d-variable functions:\0A\00", align 1
@.str.49 = private unnamed_addr constant [12 x i8] c"  func %d: \00", align 1
@.str.50 = private unnamed_addr constant [18 x i8] c"  max depth = %d\0A\00", align 1
@.str.51 = private unnamed_addr constant [18 x i8] c"  arrival times =\00", align 1
@.str.93 = private unnamed_addr constant [3 x i8] c"%c\00", align 1

; Function Attrs: inlinehint nounwind uwtable
define internal i32 @Abc_TtWordNum(i32 noundef %0) #2 {
  %2 = alloca i32, align 4
  store i32 %0, ptr %2, align 4, !tbaa !10
  %3 = load i32, ptr %2, align 4, !tbaa !10
  %4 = icmp sle i32 %3, 6
  br i1 %4, label %5, label %6

5:                                                ; preds = %1
  br label %10

6:                                                ; preds = %1
  %7 = load i32, ptr %2, align 4, !tbaa !10
  %8 = sub nsw i32 %7, 6
  %9 = shl i32 1, %8
  br label %10

10:                                               ; preds = %6, %5
  %11 = phi i32 [ 1, %5 ], [ %9, %6 ]
  ret i32 %11
}

; Function Attrs: inlinehint nounwind uwtable
define internal signext i8 @Abc_TtPrintDigit(i32 noundef %0) #2 {
  %2 = alloca i8, align 1
  %3 = alloca i32, align 4
  store i32 %0, ptr %3, align 4, !tbaa !10
  %4 = load i32, ptr %3, align 4, !tbaa !10
  %5 = icmp slt i32 %4, 10
  br i1 %5, label %6, label %10

6:                                                ; preds = %1
  %7 = load i32, ptr %3, align 4, !tbaa !10
  %8 = add nsw i32 48, %7
  %9 = trunc i32 %8 to i8
  store i8 %9, ptr %2, align 1
  br label %15

10:                                               ; preds = %1
  %11 = load i32, ptr %3, align 4, !tbaa !10
  %12 = add nsw i32 65, %11
  %13 = sub nsw i32 %12, 10
  %14 = trunc i32 %13 to i8
  store i8 %14, ptr %2, align 1
  br label %15

15:                                               ; preds = %10, %6
  %16 = load i8, ptr %2, align 1
  ret i8 %16
}

; Function Attrs: inlinehint nounwind uwtable
define internal void @Abc_TtPrintHexRev(ptr noundef %0, ptr noundef %1, i32 noundef %2) #2 {
  %4 = alloca ptr, align 8
  %5 = alloca ptr, align 8
  %6 = alloca i32, align 4
  %7 = alloca ptr, align 8
  %8 = alloca i32, align 4
  %9 = alloca i32, align 4
  store ptr %0, ptr %4, align 8, !tbaa !54
  store ptr %1, ptr %5, align 8, !tbaa !8
  store i32 %2, ptr %6, align 4, !tbaa !10
  call void @llvm.lifetime.start.p0(i64 8, ptr %7) #14
  call void @llvm.lifetime.start.p0(i64 4, ptr %8) #14
  call void @llvm.lifetime.start.p0(i64 4, ptr %9) #14
  %10 = load i32, ptr %6, align 4, !tbaa !10
  %11 = icmp sge i32 %10, 6
  br i1 %11, label %12, label %13

12:                                               ; preds = %3
  br label %17

13:                                               ; preds = %3
  %14 = load i32, ptr %6, align 4, !tbaa !10
  %15 = sub nsw i32 %14, 2
  %16 = shl i32 1, %15
  br label %17

17:                                               ; preds = %13, %12
  %18 = phi i32 [ 16, %12 ], [ %16, %13 ]
  store i32 %18, ptr %9, align 4, !tbaa !10
  %19 = load i32, ptr %6, align 4, !tbaa !10
  %20 = icmp slt i32 %19, 2
  br i1 %20, label %21, label %31

21:                                               ; preds = %17
  %22 = load ptr, ptr %4, align 8, !tbaa !54
  %23 = load ptr, ptr %5, align 8, !tbaa !8
  %24 = getelementptr inbounds i64, ptr %23, i64 0
  %25 = load i64, ptr %24, align 8, !tbaa !37
  %26 = trunc i64 %25 to i32
  %27 = and i32 %26, 15
  %28 = call signext i8 @Abc_TtPrintDigit(i32 noundef %27)
  %29 = sext i8 %28 to i32
  %30 = call i32 (ptr, ptr, ...) @fprintf(ptr noundef %22, ptr noundef @.str.93, i32 noundef %29) #14
  br label %70

31:                                               ; preds = %17
  %32 = load ptr, ptr %5, align 8, !tbaa !8
  %33 = load i32, ptr %6, align 4, !tbaa !10
  %34 = call i32 @Abc_TtWordNum(i32 noundef %33)
  %35 = sext i32 %34 to i64
  %36 = getelementptr inbounds i64, ptr %32, i64 %35
  %37 = getelementptr inbounds i64, ptr %36, i64 -1
  store ptr %37, ptr %7, align 8, !tbaa !8
  br label %38

38:                                               ; preds = %66, %31
  %39 = load ptr, ptr %7, align 8, !tbaa !8
  %40 = load ptr, ptr %5, align 8, !tbaa !8
  %41 = icmp uge ptr %39, %40
  br i1 %41, label %42, label %69

42:                                               ; preds = %38
  %43 = load i32, ptr %9, align 4, !tbaa !10
  %44 = sub nsw i32 %43, 1
  store i32 %44, ptr %8, align 4, !tbaa !10
  br label %45

45:                                               ; preds = %62, %42
  %46 = load i32, ptr %8, align 4, !tbaa !10
  %47 = icmp sge i32 %46, 0
  br i1 %47, label %48, label %65

48:                                               ; preds = %45
  %49 = load ptr, ptr %4, align 8, !tbaa !54
  %50 = load ptr, ptr %7, align 8, !tbaa !8
  %51 = getelementptr inbounds i64, ptr %50, i64 0
  %52 = load i64, ptr %51, align 8, !tbaa !37
  %53 = load i32, ptr %8, align 4, !tbaa !10
  %54 = shl i32 %53, 2
  %55 = zext i32 %54 to i64
  %56 = lshr i64 %52, %55
  %57 = trunc i64 %56 to i32
  %58 = and i32 %57, 15
  %59 = call signext i8 @Abc_TtPrintDigit(i32 noundef %58)
  %60 = sext i8 %59 to i32
  %61 = call i32 (ptr, ptr, ...) @fprintf(ptr noundef %49, ptr noundef @.str.93, i32 noundef %60) #14
  br label %62

62:                                               ; preds = %48
  %63 = load i32, ptr %8, align 4, !tbaa !10
  %64 = add nsw i32 %63, -1
  store i32 %64, ptr %8, align 4, !tbaa !10
  br label %45, !llvm.loop !192

65:                                               ; preds = %45
  br label %66

66:                                               ; preds = %65
  %67 = load ptr, ptr %7, align 8, !tbaa !8
  %68 = getelementptr inbounds i64, ptr %67, i32 -1
  store ptr %68, ptr %7, align 8, !tbaa !8
  br label %38, !llvm.loop !193

69:                                               ; preds = %38
  br label %70

70:                                               ; preds = %69, %21
  call void @llvm.lifetime.end.p0(i64 4, ptr %9) #14
  call void @llvm.lifetime.end.p0(i64 4, ptr %8) #14
  call void @llvm.lifetime.end.p0(i64 8, ptr %7) #14
  ret void
}

; Function Attrs: inlinehint nounwind uwtable
define internal void @Ses_ManPrintFuncs(ptr noundef %0) #2 {
  %2 = alloca ptr, align 8
  %3 = alloca i32, align 4
  store ptr %0, ptr %2, align 8, !tbaa !66
  call void @llvm.lifetime.start.p0(i64 4, ptr %3) #14
  %4 = load ptr, ptr %2, align 8, !tbaa !66
  %5 = getelementptr inbounds nuw %struct.Ses_Man_t_, ptr %4, i32 0, i32 4
  %6 = load i32, ptr %5, align 8, !tbaa !79
  %7 = load ptr, ptr %2, align 8, !tbaa !66
  %8 = getelementptr inbounds nuw %struct.Ses_Man_t_, ptr %7, i32 0, i32 3
  %9 = load i32, ptr %8, align 4, !tbaa !78
  %10 = call i32 (ptr, ...) @printf(ptr noundef @.str.48, i32 noundef %6, i32 noundef %9)
  store i32 0, ptr %3, align 4, !tbaa !10
  br label %11

11:                                               ; preds = %33, %1
  %12 = load i32, ptr %3, align 4, !tbaa !10
  %13 = load ptr, ptr %2, align 8, !tbaa !66
  %14 = getelementptr inbounds nuw %struct.Ses_Man_t_, ptr %13, i32 0, i32 4
  %15 = load i32, ptr %14, align 8, !tbaa !79
  %16 = icmp slt i32 %12, %15
  br i1 %16, label %17, label %36

17:                                               ; preds = %11
  %18 = load i32, ptr %3, align 4, !tbaa !10
  %19 = add nsw i32 %18, 1
  %20 = call i32 (ptr, ...) @printf(ptr noundef @.str.49, i32 noundef %19)
  %21 = load ptr, ptr @stdout, align 8, !tbaa !54
  %22 = load ptr, ptr %2, align 8, !tbaa !66
  %23 = getelementptr inbounds nuw %struct.Ses_Man_t_, ptr %22, i32 0, i32 1
  %24 = load ptr, ptr %23, align 8, !tbaa !77
  %25 = load i32, ptr %3, align 4, !tbaa !10
  %26 = shl i32 %25, 2
  %27 = sext i32 %26 to i64
  %28 = getelementptr inbounds i64, ptr %24, i64 %27
  %29 = load ptr, ptr %2, align 8, !tbaa !66
  %30 = getelementptr inbounds nuw %struct.Ses_Man_t_, ptr %29, i32 0, i32 3
  %31 = load i32, ptr %30, align 4, !tbaa !78
  call void @Abc_TtPrintHexRev(ptr noundef %21, ptr noundef %28, i32 noundef %31)
  %32 = call i32 (ptr, ...) @printf(ptr noundef @.str)
  br label %33

33:                                               ; preds = %17
  %34 = load i32, ptr %3, align 4, !tbaa !10
  %35 = add nsw i32 %34, 1
  store i32 %35, ptr %3, align 4, !tbaa !10
  br label %11, !llvm.loop !96

36:                                               ; preds = %11
  %37 = load ptr, ptr %2, align 8, !tbaa !66
  %38 = getelementptr inbounds nuw %struct.Ses_Man_t_, ptr %37, i32 0, i32 7
  %39 = load i32, ptr %38, align 4, !tbaa !82
  %40 = icmp ne i32 %39, -1
  br i1 %40, label %41, label %73

41:                                               ; preds = %36
  %42 = load ptr, ptr %2, align 8, !tbaa !66
  %43 = getelementptr inbounds nuw %struct.Ses_Man_t_, ptr %42, i32 0, i32 7
  %44 = load i32, ptr %43, align 4, !tbaa !82
  %45 = call i32 (ptr, ...) @printf(ptr noundef @.str.50, i32 noundef %44)
  %46 = load ptr, ptr %2, align 8, !tbaa !66
  %47 = getelementptr inbounds nuw %struct.Ses_Man_t_, ptr %46, i32 0, i32 9
  %48 = load ptr, ptr %47, align 8, !tbaa !83
  %49 = icmp ne ptr %48, null
  br i1 %49, label %50, label %72

50:                                               ; preds = %41
  %51 = call i32 (ptr, ...) @printf(ptr noundef @.str.51)
  store i32 0, ptr %3, align 4, !tbaa !10
  br label %52

52:                                               ; preds = %67, %50
  %53 = load i32, ptr %3, align 4, !tbaa !10
  %54 = load ptr, ptr %2, align 8, !tbaa !66
  %55 = getelementptr inbounds nuw %struct.Ses_Man_t_, ptr %54, i32 0, i32 3
  %56 = load i32, ptr %55, align 4, !tbaa !78
  %57 = icmp slt i32 %53, %56
  br i1 %57, label %58, label %70

58:                                               ; preds = %52
  %59 = load ptr, ptr %2, align 8, !tbaa !66
  %60 = getelementptr inbounds nuw %struct.Ses_Man_t_, ptr %59, i32 0, i32 9
  %61 = load ptr, ptr %60, align 8, !tbaa !83
  %62 = load i32, ptr %3, align 4, !tbaa !10
  %63 = sext i32 %62 to i64
  %64 = getelementptr inbounds i32, ptr %61, i64 %63
  %65 = load i32, ptr %64, align 4, !tbaa !10
  %66 = call i32 (ptr, ...) @printf(ptr noundef @.str.37, i32 noundef %65)
  br label %67

67:                                               ; preds = %58
  %68 = load i32, ptr %3, align 4, !tbaa !10
  %69 = add nsw i32 %68, 1
  store i32 %69, ptr %3, align 4, !tbaa !10
  br label %52, !llvm.loop !97

70:                                               ; preds = %52
  %71 = call i32 (ptr, ...) @printf(ptr noundef @.str)
  br label %72

72:                                               ; preds = %70, %41
  br label %73

73:                                               ; preds = %72, %36
  call void @llvm.lifetime.end.p0(i64 4, ptr %3) #14
  ret void
}