; Function Attrs: inlinehint nofree nounwind uwtable
define internal fastcc void @Ses_ManPrintFuncs(ptr noundef readonly captures(none) %0) unnamed_addr #7 {
  %2 = getelementptr inbounds nuw i8, ptr %0, i64 24
  %3 = load i32, ptr %2, align 8, !tbaa !97
  %4 = getelementptr inbounds nuw i8, ptr %0, i64 20
  %5 = load i32, ptr %4, align 4, !tbaa !96
  %6 = tail call i32 (ptr, ...) @printf(ptr noundef nonnull dereferenceable(1) @.str.48, i32 noundef %3, i32 noundef %5)
  %7 = load i32, ptr %2, align 8, !tbaa !97
  %8 = icmp sgt i32 %7, 0
  br i1 %8, label %.lr.ph, label %._crit_edge

.lr.ph:                                           ; preds = %1
  %9 = getelementptr inbounds nuw i8, ptr %0, i64 8
  br label %10

10:                                               ; preds = %.lr.ph, %Abc_TtPrintHexRev.exit
  %indvars.iv = phi i64 [ 0, %.lr.ph ], [ %indvars.iv.next, %Abc_TtPrintHexRev.exit ]
  %indvars.iv.next = add nuw nsw i64 %indvars.iv, 1
  %11 = trunc nuw nsw i64 %indvars.iv.next to i32
  %12 = tail call i32 (ptr, ...) @printf(ptr noundef nonnull dereferenceable(1) @.str.49, i32 noundef %11)
  %13 = load ptr, ptr @stdout, align 8, !tbaa !116
  %14 = load ptr, ptr %9, align 8, !tbaa !95
  %15 = trunc nuw nsw i64 %indvars.iv to i32
  %16 = shl i32 %15, 2
  %17 = sext i32 %16 to i64
  %18 = getelementptr inbounds i64, ptr %14, i64 %17
  %19 = load i32, ptr %4, align 4, !tbaa !96
  %20 = icmp sgt i32 %19, 5
  %21 = add nsw i32 %19, -2
  %22 = icmp slt i32 %19, 2
  br i1 %22, label %23, label %30

23:                                               ; preds = %10
  %24 = load i64, ptr %18, align 8, !tbaa !3
  %25 = trunc i64 %24 to i32
  %26 = and i32 %25, 15
  %27 = icmp samesign ult i32 %26, 10
  %28 = or disjoint i32 %26, 48
  %29 = add nuw nsw i32 %26, 55
  %.0.i.i = select i1 %27, i32 %28, i32 %29
  %fputc17.i = tail call i32 @fputc(i32 %.0.i.i, ptr %13)
  br label %Abc_TtPrintHexRev.exit

30:                                               ; preds = %10
  %31 = icmp samesign ult i32 %19, 7
  %32 = add nsw i32 %19, -6
  %33 = shl nuw i32 1, %32
  %34 = select i1 %31, i32 1, i32 %33
  %35 = sext i32 %34 to i64
  %36 = getelementptr inbounds i64, ptr %18, i64 %35
  %.021.i = getelementptr inbounds i8, ptr %36, i64 -8
  %.not22.i = icmp ult ptr %.021.i, %18
  br i1 %.not22.i, label %Abc_TtPrintHexRev.exit, label %.lr.ph.us.preheader.i

.lr.ph.us.preheader.i:                            ; preds = %30
  %notmask.i = shl nsw i32 -1, %21
  %37 = xor i32 %notmask.i, -1
  %38 = select i1 %20, i32 15, i32 %37
  %39 = zext nneg i32 %38 to i64
  br label %.lr.ph.us.i

.lr.ph.us.i:                                      ; preds = %..loopexit_crit_edge.us.i, %.lr.ph.us.preheader.i
  %.023.us.i = phi ptr [ %.0.us.i, %..loopexit_crit_edge.us.i ], [ %.021.i, %.lr.ph.us.preheader.i ]
  br label %40

40:                                               ; preds = %40, %.lr.ph.us.i
  %indvars.iv.i = phi i64 [ %39, %.lr.ph.us.i ], [ %indvars.iv.next.i, %40 ]
  %41 = load i64, ptr %.023.us.i, align 8, !tbaa !3
  %42 = shl i64 %indvars.iv.i, 2
  %43 = and i64 %42, 4294967292
  %44 = lshr i64 %41, %43
  %45 = trunc i64 %44 to i32
  %46 = and i32 %45, 15
  %47 = icmp samesign ult i32 %46, 10
  %48 = or disjoint i32 %46, 48
  %49 = add nuw nsw i32 %46, 55
  %.0.i18.us.i = select i1 %47, i32 %48, i32 %49
  %fputc.us.i = tail call i32 @fputc(i32 %.0.i18.us.i, ptr %13)
  %indvars.iv.next.i = add nsw i64 %indvars.iv.i, -1
  %50 = icmp sgt i64 %indvars.iv.i, 0
  br i1 %50, label %40, label %..loopexit_crit_edge.us.i, !llvm.loop !117

..loopexit_crit_edge.us.i:                        ; preds = %40
  %.0.us.i = getelementptr inbounds i8, ptr %.023.us.i, i64 -8
  %.not.us.i = icmp ult ptr %.0.us.i, %18
  br i1 %.not.us.i, label %Abc_TtPrintHexRev.exit, label %.lr.ph.us.i, !llvm.loop !118

Abc_TtPrintHexRev.exit:                           ; preds = %..loopexit_crit_edge.us.i, %23, %30
  %putchar18 = tail call i32 @putchar(i32 10)
  %51 = load i32, ptr %2, align 8, !tbaa !97
  %52 = sext i32 %51 to i64
  %53 = icmp slt i64 %indvars.iv.next, %52
  br i1 %53, label %10, label %._crit_edge, !llvm.loop !119

._crit_edge:                                      ; preds = %Abc_TtPrintHexRev.exit, %1
  %54 = getelementptr inbounds nuw i8, ptr %0, i64 36
  %55 = load i32, ptr %54, align 4, !tbaa !100
  %.not = icmp eq i32 %55, -1
  br i1 %.not, label %71, label %56

56:                                               ; preds = %._crit_edge
  %57 = tail call i32 (ptr, ...) @printf(ptr noundef nonnull dereferenceable(1) @.str.50, i32 noundef %55)
  %58 = getelementptr inbounds nuw i8, ptr %0, i64 48
  %59 = load ptr, ptr %58, align 8, !tbaa !101
  %.not17 = icmp eq ptr %59, null
  br i1 %.not17, label %71, label %60

60:                                               ; preds = %56
  %61 = tail call i32 (ptr, ...) @printf(ptr noundef nonnull dereferenceable(1) @.str.51)
  %62 = load i32, ptr %4, align 4, !tbaa !96
  %63 = icmp sgt i32 %62, 0
  br i1 %63, label %.lr.ph22, label %._crit_edge23

.lr.ph22:                                         ; preds = %60, %.lr.ph22
  %indvars.iv25 = phi i64 [ %indvars.iv.next26, %.lr.ph22 ], [ 0, %60 ]
  %64 = load ptr, ptr %58, align 8, !tbaa !101
  %65 = getelementptr inbounds nuw i32, ptr %64, i64 %indvars.iv25
  %66 = load i32, ptr %65, align 4, !tbaa !7
  %67 = tail call i32 (ptr, ...) @printf(ptr noundef nonnull dereferenceable(1) @.str.37, i32 noundef %66)
  %indvars.iv.next26 = add nuw nsw i64 %indvars.iv25, 1
  %68 = load i32, ptr %4, align 4, !tbaa !96
  %69 = sext i32 %68 to i64
  %70 = icmp slt i64 %indvars.iv.next26, %69
  br i1 %70, label %.lr.ph22, label %._crit_edge23, !llvm.loop !120

._crit_edge23:                                    ; preds = %.lr.ph22, %60
  %putchar = tail call i32 @putchar(i32 10)
  br label %71

71:                                               ; preds = %56, %._crit_edge23, %._crit_edge
  ret void
}